target datalayout = "e-m:e-p270:32:32-p271:32:32-p272:64:64-i64:64-i128:128-f80:128-n8:16:32:64-S128"
target triple = "x86_64-pc-linux-gnu"

%struct.ma_decoding_backend_vtable = type { ptr, ptr, ptr, ptr, ptr }
%struct.ma_allocation_callbacks = type { ptr, ptr, ptr, ptr }
%struct.ma_data_source_base = type { ptr, i64, i64, i64, i64, ptr, ptr, ptr, i32 }
%struct.ma_data_converter = type { i32, i32, i32, i32, i32, i32, i32, i32, %struct.ma_channel_converter, %struct.ma_resampler, i8, i8, i8, i8, i8, i8, ptr }
%struct.ma_channel_converter = type { i32, i32, i32, i32, i32, ptr, ptr, ptr, %union.anon.22, ptr, i32 }
%union.anon.22 = type { ptr }
%struct.ma_resampler = type { ptr, ptr, ptr, i32, i32, i32, i32, %union.anon.23, ptr, i32 }
%union.anon.23 = type { %struct.ma_linear_resampler }
%struct.ma_linear_resampler = type { %struct.ma_linear_resampler_config, i32, i32, i32, i32, %union.anon.24, %union.anon.25, %struct.ma_lpf, ptr, i32 }
%struct.ma_linear_resampler_config = type { i32, i32, i32, i32, i32, double }
%union.anon.24 = type { ptr }
%union.anon.25 = type { ptr }
%struct.ma_lpf = type { i32, i32, i32, i32, i32, ptr, ptr, ptr, i32 }
%struct.ma_resampler_config = type { i32, i32, i32, i32, i32, ptr, ptr, %struct.anon.43 }
%struct.anon.43 = type { i32 }
%struct.ma_decoding_backend_config = type { i32, i32 }
%struct.ma_decoder_config = type { i32, i32, i32, ptr, i32, i32, %struct.ma_resampler_config, %struct.ma_allocation_callbacks, i32, i32, ptr, i32, ptr }
%struct.ma_decoder = type { %struct.ma_data_source_base, ptr, ptr, ptr, ptr, ptr, ptr, ptr, i64, i32, i32, i32, %struct.ma_data_converter, ptr, i64, i64, i64, %struct.ma_allocation_callbacks, %union.anon.56 }
%union.anon.56 = type { %struct.anon.58 }
%struct.anon.58 = type { ptr, i64, i64 }

@g_ma_decoding_backend_vtable_mp3 = internal global %struct.ma_decoding_backend_vtable { ptr @ma_decoding_backend_init__mp3, ptr @ma_decoding_backend_init_file__mp3, ptr @ma_decoding_backend_init_file_w__mp3, ptr @ma_decoding_backend_init_memory__mp3, ptr @ma_decoding_backend_uninit__mp3 }, align 8

; Function Attrs: alwaysinline nounwind uwtable
define internal void @ma_zero_memory_default(ptr noundef %0, i64 noundef %1) #7 {
  %3 = alloca ptr, align 8
  %4 = alloca i64, align 8
  store ptr %0, ptr %3, align 8, !tbaa !25
  store i64 %1, ptr %4, align 8, !tbaa !12
  %5 = load ptr, ptr %3, align 8, !tbaa !25
  %6 = icmp eq ptr %5, null
  br i1 %6, label %7, label %8

7:                                                ; preds = %2
  br label %14

8:                                                ; preds = %2
  %9 = load i64, ptr %4, align 8, !tbaa !12
  %10 = icmp ugt i64 %9, 0
  br i1 %10, label %11, label %14

11:                                               ; preds = %8
  %12 = load ptr, ptr %3, align 8, !tbaa !25
  %13 = load i64, ptr %4, align 8, !tbaa !12
  call void @llvm.memset.p0.i64(ptr align 1 %12, i8 0, i64 %13, i1 false)
  br label %14

14:                                               ; preds = %7, %11, %8
  ret void
}

; Function Attrs: nounwind uwtable
define i64 @ma_decoding_backend_config_init(i32 noundef %0, i32 noundef %1) #0 {
  %3 = alloca %struct.ma_decoding_backend_config, align 4
  %4 = alloca i32, align 4
  %5 = alloca i32, align 4
  store i32 %0, ptr %4, align 4, !tbaa !8
  store i32 %1, ptr %5, align 4, !tbaa !8
  call void @ma_zero_memory_default(ptr noundef %3, i64 noundef 8)
  %6 = load i32, ptr %4, align 4, !tbaa !8
  %7 = getelementptr inbounds nuw %struct.ma_decoding_backend_config, ptr %3, i32 0, i32 0
  store i32 %6, ptr %7, align 4, !tbaa !95
  %8 = load i32, ptr %5, align 4, !tbaa !8
  %9 = getelementptr inbounds nuw %struct.ma_decoding_backend_config, ptr %3, i32 0, i32 1
  store i32 %8, ptr %9, align 4, !tbaa !97
  %10 = load i64, ptr %3, align 4
  ret i64 %10
}

; Function Attrs: nounwind uwtable
define internal i32 @ma_decoder_init_from_file_w__internal(ptr noundef %0, ptr noundef %1, ptr noundef %2, ptr noundef %3, ptr noundef %4) #0 {
  %6 = alloca i32, align 4
  %7 = alloca ptr, align 8
  %8 = alloca ptr, align 8
  %9 = alloca ptr, align 8
  %10 = alloca ptr, align 8
  %11 = alloca ptr, align 8
  %12 = alloca i32, align 4
  %13 = alloca %struct.ma_decoding_backend_config, align 4
  %14 = alloca ptr, align 8
  %15 = alloca i32, align 4
  %16 = alloca %struct.ma_decoding_backend_config, align 4
  store ptr %0, ptr %7, align 8, !tbaa !25
  store ptr %1, ptr %8, align 8, !tbaa !25
  store ptr %2, ptr %9, align 8, !tbaa !3
  store ptr %3, ptr %10, align 8, !tbaa !25
  store ptr %4, ptr %11, align 8, !tbaa !1043
  call void @llvm.lifetime.start.p0(i64 4, ptr %12) #16
  call void @llvm.lifetime.start.p0(i64 8, ptr %13) #16
  call void @llvm.lifetime.start.p0(i64 8, ptr %14) #16
  %17 = load ptr, ptr %7, align 8, !tbaa !25
  %18 = getelementptr inbounds nuw %struct.ma_decoding_backend_vtable, ptr %17, i32 0, i32 2
  %19 = load ptr, ptr %18, align 8, !tbaa !1975
  %20 = icmp eq ptr %19, null
  br i1 %20, label %21, label %22

21:                                               ; preds = %5
  store i32 -29, ptr %6, align 4
  store i32 1, ptr %15, align 4
  br label %54

22:                                               ; preds = %5
  call void @llvm.lifetime.start.p0(i64 8, ptr %16) #16
  %23 = load ptr, ptr %10, align 8, !tbaa !25
  %24 = getelementptr inbounds nuw %struct.ma_decoder_config, ptr %23, i32 0, i32 0
  %25 = load i32, ptr %24, align 8, !tbaa !931
  %26 = load ptr, ptr %10, align 8, !tbaa !25
  %27 = getelementptr inbounds nuw %struct.ma_decoder_config, ptr %26, i32 0, i32 9
  %28 = load i32, ptr %27, align 4, !tbaa !1963
  %29 = call i64 @ma_decoding_backend_config_init(i32 noundef %25, i32 noundef %28)
  store i64 %29, ptr %16, align 4
  call void @llvm.memcpy.p0.p0.i64(ptr align 4 %13, ptr align 4 %16, i64 8, i1 false), !tbaa.struct !201
  call void @llvm.lifetime.end.p0(i64 8, ptr %16) #16
  %30 = load ptr, ptr %7, align 8, !tbaa !25
  %31 = getelementptr inbounds nuw %struct.ma_decoding_backend_vtable, ptr %30, i32 0, i32 2
  %32 = load ptr, ptr %31, align 8, !tbaa !1975
  %33 = load ptr, ptr %8, align 8, !tbaa !25
  %34 = load ptr, ptr %9, align 8, !tbaa !3
  %35 = load ptr, ptr %11, align 8, !tbaa !1043
  %36 = getelementptr inbounds nuw %struct.ma_decoder, ptr %35, i32 0, i32 17
  %37 = call i32 %32(ptr noundef %33, ptr noundef %34, ptr noundef %13, ptr noundef %36, ptr noundef %14)
  store i32 %37, ptr %12, align 4, !tbaa !8
  %38 = load i32, ptr %12, align 4, !tbaa !8
  %39 = icmp ne i32 %38, 0
  br i1 %39, label %40, label %42

40:                                               ; preds = %22
  %41 = load i32, ptr %12, align 4, !tbaa !8
  store i32 %41, ptr %6, align 4
  store i32 1, ptr %15, align 4
  br label %54

42:                                               ; preds = %22
  %43 = load ptr, ptr %14, align 8, !tbaa !25
  %44 = load ptr, ptr %11, align 8, !tbaa !1043
  %45 = getelementptr inbounds nuw %struct.ma_decoder, ptr %44, i32 0, i32 1
  store ptr %43, ptr %45, align 8, !tbaa !1061
  %46 = load ptr, ptr %7, align 8, !tbaa !25
  %47 = load ptr, ptr %11, align 8, !tbaa !1043
  %48 = getelementptr inbounds nuw %struct.ma_decoder, ptr %47, i32 0, i32 2
  store ptr %46, ptr %48, align 8, !tbaa !1050
  %49 = load ptr, ptr %10, align 8, !tbaa !25
  %50 = getelementptr inbounds nuw %struct.ma_decoder_config, ptr %49, i32 0, i32 12
  %51 = load ptr, ptr %50, align 8, !tbaa !1056
  %52 = load ptr, ptr %11, align 8, !tbaa !1043
  %53 = getelementptr inbounds nuw %struct.ma_decoder, ptr %52, i32 0, i32 3
  store ptr %51, ptr %53, align 8, !tbaa !1053
  store i32 0, ptr %6, align 4
  store i32 1, ptr %15, align 4
  br label %54

54:                                               ; preds = %42, %40, %21
  call void @llvm.lifetime.end.p0(i64 8, ptr %14) #16
  call void @llvm.lifetime.end.p0(i64 8, ptr %13) #16
  call void @llvm.lifetime.end.p0(i64 4, ptr %12) #16
  %55 = load i32, ptr %6, align 4
  ret i32 %55
}

; Function Attrs: nounwind uwtable
define internal i32 @ma_decoder_init_mp3_from_file_w__internal(ptr noundef %0, ptr noundef %1, ptr noundef %2) #0 {
  %4 = alloca ptr, align 8
  %5 = alloca ptr, align 8
  %6 = alloca ptr, align 8
  store ptr %0, ptr %4, align 8, !tbaa !3
  store ptr %1, ptr %5, align 8, !tbaa !25
  store ptr %2, ptr %6, align 8, !tbaa !1043
  %7 = load ptr, ptr %4, align 8, !tbaa !3
  %8 = load ptr, ptr %5, align 8, !tbaa !25
  %9 = load ptr, ptr %6, align 8, !tbaa !1043
  %10 = call i32 @ma_decoder_init_from_file_w__internal(ptr noundef @g_ma_decoding_backend_vtable_mp3, ptr noundef null, ptr noundef %7, ptr noundef %8, ptr noundef %9)
  ret i32 %10
}