; Function Attrs: nounwind uwtable
define internal fastcc i32 @ma_decoder_init_mp3_from_file_w__internal(ptr noundef %0, ptr noundef nonnull readonly captures(none) %1, ptr noundef %2) unnamed_addr #7 {
  %4 = alloca %struct.ma_decoding_backend_config, align 8
  %5 = alloca ptr, align 8
  call void @llvm.lifetime.start.p0(i64 8, ptr nonnull %4) #69
  call void @llvm.lifetime.start.p0(i64 8, ptr nonnull %5) #69
  %6 = load ptr, ptr getelementptr inbounds nuw (i8, ptr @g_ma_decoding_backend_vtable_mp3, i64 16), align 8, !tbaa !1410
  %7 = icmp eq ptr %6, null
  br i1 %7, label %ma_decoder_init_from_file_w__internal.exit, label %8

8:                                                ; preds = %3
  %9 = load i32, ptr %1, align 8, !tbaa !1118
  %10 = getelementptr inbounds nuw i8, ptr %1, i64 116
  %11 = load i32, ptr %10, align 4, !tbaa !1366
  %.sroa.3.0.insert.ext.i.i = zext i32 %11 to i64
  %.sroa.3.0.insert.shift.i.i = shl nuw i64 %.sroa.3.0.insert.ext.i.i, 32
  %.sroa.0.0.insert.ext.i.i = zext i32 %9 to i64
  %.sroa.0.0.insert.insert.i.i = or disjoint i64 %.sroa.3.0.insert.shift.i.i, %.sroa.0.0.insert.ext.i.i
  store i64 %.sroa.0.0.insert.insert.i.i, ptr %4, align 8
  %12 = getelementptr inbounds nuw i8, ptr %2, i64 496
  %13 = call i32 %6(ptr noundef null, ptr noundef %0, ptr noundef nonnull %4, ptr noundef nonnull %12, ptr noundef nonnull %5) #69
  %.not.i = icmp eq i32 %13, 0
  br i1 %.not.i, label %14, label %ma_decoder_init_from_file_w__internal.exit

14:                                               ; preds = %8
  %15 = load ptr, ptr %5, align 8, !tbaa !27
  %16 = getelementptr inbounds nuw i8, ptr %2, i64 72
  store ptr %15, ptr %16, align 8, !tbaa !1367
  %17 = getelementptr inbounds nuw i8, ptr %2, i64 80
  store ptr @g_ma_decoding_backend_vtable_mp3, ptr %17, align 8, !tbaa !1368
  %18 = getelementptr inbounds nuw i8, ptr %1, i64 136
  %19 = load ptr, ptr %18, align 8, !tbaa !1369
  %20 = getelementptr inbounds nuw i8, ptr %2, i64 88
  store ptr %19, ptr %20, align 8, !tbaa !1370
  br label %ma_decoder_init_from_file_w__internal.exit

ma_decoder_init_from_file_w__internal.exit:       ; preds = %3, %8, %14
  %.0.i = phi i32 [ 0, %14 ], [ -29, %3 ], [ %13, %8 ]
  call void @llvm.lifetime.end.p0(i64 8, ptr nonnull %5) #69
  call void @llvm.lifetime.end.p0(i64 8, ptr nonnull %4) #69
  ret i32 %.0.i
}